; ModuleID = '38/262.c'
source_filename = "38/262.c"
target datalayout = "e-m:e-p270:32:32-p271:32:32-p272:64:64-i64:64-f80:128-n8:16:32:64-S128"
target triple = "x86_64-pc-linux-gnu"

@.str = private unnamed_addr constant [3 x i8] c"%d\00", align 1
@.str.1 = private unnamed_addr constant [4 x i8] c"%lf\00", align 1
@.str.2 = private unnamed_addr constant [7 x i8] c"%.5lf\0A\00", align 1

; Function Attrs: noinline nounwind uwtable
define dso_local i32 @main() #0 {
  %1 = alloca i32, align 4
  %2 = alloca i32, align 4
  %3 = alloca i32, align 4
  %4 = alloca i32, align 4
  %5 = alloca i32, align 4
  %6 = alloca [1000 x double], align 16
  %7 = alloca double, align 8
  %8 = alloca double, align 8
  %9 = alloca double, align 8
  store i32 0, i32* %1, align 4
  %10 = call i32 (i8*, ...) @__isoc99_scanf(i8* getelementptr inbounds ([3 x i8], [3 x i8]* @.str, i64 0, i64 0), i32* %4)
  store i32 0, i32* %2, align 4
  br label %11

11:                                               ; preds = %80, %0
  %12 = load i32, i32* %2, align 4
  %13 = load i32, i32* %4, align 4
  %14 = icmp slt i32 %12, %13
  br i1 %14, label %15, label %83

15:                                               ; preds = %11
  store double 0.000000e+00, double* %8, align 8
  store double 0.000000e+00, double* %9, align 8
  %16 = call i32 (i8*, ...) @__isoc99_scanf(i8* getelementptr inbounds ([3 x i8], [3 x i8]* @.str, i64 0, i64 0), i32* %5)
  store i32 0, i32* %3, align 4
  br label %17

17:                                               ; preds = %26, %15
  %18 = load i32, i32* %3, align 4
  %19 = load i32, i32* %5, align 4
  %20 = icmp slt i32 %18, %19
  br i1 %20, label %21, label %29

21:                                               ; preds = %17
  %22 = load i32, i32* %3, align 4
  %23 = sext i32 %22 to i64
  %24 = getelementptr inbounds [1000 x double], [1000 x double]* %6, i64 0, i64 %23
  %25 = call i32 (i8*, ...) @__isoc99_scanf(i8* getelementptr inbounds ([4 x i8], [4 x i8]* @.str.1, i64 0, i64 0), double* %24)
  br label %26

26:                                               ; preds = %21
  %27 = load i32, i32* %3, align 4
  %28 = add nsw i32 %27, 1
  store i32 %28, i32* %3, align 4
  br label %17

29:                                               ; preds = %17
  store i32 0, i32* %3, align 4
  br label %30

30:                                               ; preds = %41, %29
  %31 = load i32, i32* %3, align 4
  %32 = load i32, i32* %5, align 4
  %33 = icmp slt i32 %31, %32
  br i1 %33, label %34, label %44

34:                                               ; preds = %30
  %35 = load double, double* %8, align 8
  %36 = load i32, i32* %3, align 4
  %37 = sext i32 %36 to i64
  %38 = getelementptr inbounds [1000 x double], [1000 x double]* %6, i64 0, i64 %37
  %39 = load double, double* %38, align 8
  %40 = fadd double %35, %39
  store double %40, double* %8, align 8
  br label %41

41:                                               ; preds = %34
  %42 = load i32, i32* %3, align 4
  %43 = add nsw i32 %42, 1
  store i32 %43, i32* %3, align 4
  br label %30

44:                                               ; preds = %30
  %45 = load double, double* %8, align 8
  %46 = load i32, i32* %5, align 4
  %47 = sitofp i32 %46 to double
  %48 = fdiv double %45, %47
  store double %48, double* %8, align 8
  store i32 0, i32* %3, align 4
  br label %49

49:                                               ; preds = %69, %44
  %50 = load i32, i32* %3, align 4
  %51 = load i32, i32* %5, align 4
  %52 = icmp slt i32 %50, %51
  br i1 %52, label %53, label %72

53:                                               ; preds = %49
  %54 = load double, double* %9, align 8
  %55 = load i32, i32* %3, align 4
  %56 = sext i32 %55 to i64
  %57 = getelementptr inbounds [1000 x double], [1000 x double]* %6, i64 0, i64 %56
  %58 = load double, double* %57, align 8
  %59 = load double, double* %8, align 8
  %60 = fsub double %58, %59
  %61 = load i32, i32* %3, align 4
  %62 = sext i32 %61 to i64
  %63 = getelementptr inbounds [1000 x double], [1000 x double]* %6, i64 0, i64 %62
  %64 = load double, double* %63, align 8
  %65 = load double, double* %8, align 8
  %66 = fsub double %64, %65
  %67 = fmul double %60, %66
  %68 = fadd double %54, %67
  store double %68, double* %9, align 8
  br label %69

69:                                               ; preds = %53
  %70 = load i32, i32* %3, align 4
  %71 = add nsw i32 %70, 1
  store i32 %71, i32* %3, align 4
  br label %49

72:                                               ; preds = %49
  %73 = load double, double* %9, align 8
  %74 = load i32, i32* %5, align 4
  %75 = sitofp i32 %74 to double
  %76 = fdiv double %73, %75
  %77 = call double @sqrt(double %76) #3
  store double %77, double* %7, align 8
  %78 = load double, double* %7, align 8
  %79 = call i32 (i8*, ...) @printf(i8* getelementptr inbounds ([7 x i8], [7 x i8]* @.str.2, i64 0, i64 0), double %78)
  br label %80

80:                                               ; preds = %72
  %81 = load i32, i32* %2, align 4
  %82 = add nsw i32 %81, 1
  store i32 %82, i32* %2, align 4
  br label %11

83:                                               ; preds = %11
  ret i32 0
}

declare dso_local i32 @__isoc99_scanf(i8*, ...) #1

; Function Attrs: nounwind
declare dso_local double @sqrt(double) #2

declare dso_local i32 @printf(i8*, ...) #1


!llvm.module.flags = !{!0}
!llvm.ident = !{!1}

!0 = !{i32 1, !"wchar_size", i32 4}
!1 = !{!"clang version 10.0.0-4ubuntu1 "}
